target datalayout = "e-m:e-p270:32:32-p271:32:32-p272:64:64-i64:64-i128:128-f80:128-n8:16:32:64-S128"
target triple = "x86_64-pc-linux-gnu"

; Function Attrs: nounwind uwtable
define internal i32 @int_put_bytes_bn(ptr noundef %0, ptr noundef %1, ptr noundef %2) #0 {
  %4 = alloca i32, align 4
  %5 = alloca ptr, align 8
  %6 = alloca ptr, align 8
  %7 = alloca ptr, align 8
  %8 = alloca ptr, align 8
  %9 = alloca i64, align 8
  %10 = alloca i32, align 4
  store ptr %0, ptr %5, align 8, !tbaa !3
  store ptr %1, ptr %6, align 8, !tbaa !17
  store ptr %2, ptr %7, align 8, !tbaa !18
  call void @llvm.lifetime.start.p0(i64 8, ptr %8) #5
  store ptr null, ptr %8, align 8, !tbaa !10
  call void @llvm.lifetime.start.p0(i64 8, ptr %9) #5
  %11 = load ptr, ptr %6, align 8, !tbaa !17
  %12 = call i32 @BN_num_bits(ptr noundef %11)
  %13 = add nsw i32 %12, 7
  %14 = sdiv i32 %13, 8
  %15 = sext i32 %14 to i64
  store i64 %15, ptr %9, align 8, !tbaa !12
  %16 = load ptr, ptr %6, align 8, !tbaa !17
  %17 = call ptr @bn_get_words(ptr noundef %16)
  %18 = load i64, ptr %9, align 8, !tbaa !12
  %19 = sub i64 %18, 1
  %20 = udiv i64 %19, 8
  %21 = getelementptr inbounds nuw i64, ptr %17, i64 %20
  %22 = load i64, ptr %21, align 8, !tbaa !12
  %23 = load i64, ptr %9, align 8, !tbaa !12
  %24 = sub i64 %23, 1
  %25 = urem i64 %24, 8
  %26 = mul i64 8, %25
  %27 = lshr i64 %22, %26
  %28 = and i64 %27, 255
  %29 = trunc i64 %28 to i32
  %30 = load ptr, ptr %7, align 8, !tbaa !18
  store i32 %29, ptr %30, align 4, !tbaa !8
  %31 = load ptr, ptr %5, align 8, !tbaa !3
  %32 = load i64, ptr %9, align 8, !tbaa !12
  %33 = call i32 @WPACKET_allocate_bytes(ptr noundef %31, i64 noundef %32, ptr noundef %8)
  %34 = icmp ne i32 %33, 0
  br i1 %34, label %36, label %35

35:                                               ; preds = %3
  store i32 0, ptr %4, align 4
  store i32 1, ptr %10, align 4
  br label %44

36:                                               ; preds = %3
  %37 = load ptr, ptr %8, align 8, !tbaa !10
  %38 = icmp ne ptr %37, null
  br i1 %38, label %39, label %43

39:                                               ; preds = %36
  %40 = load ptr, ptr %6, align 8, !tbaa !17
  %41 = load ptr, ptr %8, align 8, !tbaa !10
  %42 = call i32 @BN_bn2bin(ptr noundef %40, ptr noundef %41)
  br label %43

43:                                               ; preds = %39, %36
  store i32 1, ptr %4, align 4
  store i32 1, ptr %10, align 4
  br label %44

44:                                               ; preds = %43, %35
  call void @llvm.lifetime.end.p0(i64 8, ptr %9) #5
  call void @llvm.lifetime.end.p0(i64 8, ptr %8) #5
  %45 = load i32, ptr %4, align 4
  ret i32 %45
}