; Function Attrs: nounwind uwtable
define internal range(i32 0, 2) i32 @int_put_bytes_bn(ptr noundef %0, ptr noundef %1, ptr noundef writeonly captures(none) initializes((0, 4)) %2) #0 {
  %4 = alloca ptr, align 8
  call void @llvm.lifetime.start.p0(i64 8, ptr nonnull %4) #4
  store ptr null, ptr %4, align 8, !tbaa !15
  %5 = tail call i32 @BN_num_bits(ptr noundef %1) #4
  %6 = add nsw i32 %5, 7
  %7 = sdiv i32 %6, 8
  %8 = sext i32 %7 to i64
  %9 = tail call ptr @bn_get_words(ptr noundef %1) #4
  %10 = add nsw i64 %8, -1
  %11 = lshr i64 %10, 3
  %12 = getelementptr inbounds nuw i64, ptr %9, i64 %11
  %13 = load i64, ptr %12, align 8, !tbaa !4
  %14 = shl nsw i64 %10, 3
  %15 = and i64 %14, 56
  %16 = lshr i64 %13, %15
  %17 = trunc i64 %16 to i32
  %18 = and i32 %17, 255
  store i32 %18, ptr %2, align 4, !tbaa !11
  %19 = call i32 @WPACKET_allocate_bytes(ptr noundef %0, i64 noundef %8, ptr noundef nonnull %4) #4
  %.not = icmp eq i32 %19, 0
  br i1 %.not, label %24, label %20

20:                                               ; preds = %3
  %21 = load ptr, ptr %4, align 8, !tbaa !15
  %.not9 = icmp eq ptr %21, null
  br i1 %.not9, label %24, label %22

22:                                               ; preds = %20
  %23 = call i32 @BN_bn2bin(ptr noundef %1, ptr noundef nonnull %21) #4
  br label %24

24:                                               ; preds = %20, %22, %3
  %.0 = phi i32 [ 0, %3 ], [ 1, %22 ], [ 1, %20 ]
  call void @llvm.lifetime.end.p0(i64 8, ptr nonnull %4) #4
  ret i32 %.0
}